; Function Attrs: mustprogress uwtable
define void @_ZNK8QuantLib16HestonSLVMCModel13hestonProcessEv(ptr dead_on_unwind noalias nocapture writable writeonly sret(%"class.boost::shared_ptr.36") align 8 %agg.result, ptr noundef nonnull align 8 dereferenceable(128) %this) local_unnamed_addr #8 align 2 personality ptr @__gxx_personality_v0 {
entry:
  %hestonModel_ = getelementptr inbounds nuw i8, ptr %this, i64 32
  %call = tail call noundef nonnull align 8 dereferenceable(16) ptr @_ZNK8QuantLib6HandleINS_11HestonModelEEptEv(ptr noundef nonnull align 8 dereferenceable(16) %hestonModel_)
  %0 = load ptr, ptr %call, align 8, !tbaa !73
  %cmp.not.i = icmp eq ptr %0, null
  br i1 %cmp.not.i, label %cond.false.i, label %_ZNK5boost10shared_ptrIN8QuantLib11HestonModelEEptEv.exit, !prof !75

cond.false.i:                                     ; preds = %entry
  tail call void @_ZN5boost16assertion_failedEPKcS1_S1_l(ptr noundef nonnull @.str.9, ptr noundef nonnull @__PRETTY_FUNCTION__._ZNK5boost10shared_ptrIN8QuantLib11HestonModelEEptEv, ptr noundef nonnull @.str.10, i64 noundef 784)
  %.pre.i = load ptr, ptr %call, align 8, !tbaa !73
  br label %_ZNK5boost10shared_ptrIN8QuantLib11HestonModelEEptEv.exit

_ZNK5boost10shared_ptrIN8QuantLib11HestonModelEEptEv.exit: ; preds = %entry, %cond.false.i
  %1 = phi ptr [ %0, %entry ], [ %.pre.i, %cond.false.i ]
  tail call void @llvm.experimental.noalias.scope.decl(metadata !112)
  %process_.i = getelementptr inbounds nuw i8, ptr %1, i64 80
  %2 = load ptr, ptr %process_.i, align 8, !tbaa !79, !noalias !112
  store ptr %2, ptr %agg.result, align 8, !tbaa !79, !alias.scope !112
  %pn.i.i = getelementptr inbounds nuw i8, ptr %agg.result, i64 8
  %pn3.i.i = getelementptr inbounds nuw i8, ptr %1, i64 88
  %3 = load ptr, ptr %pn3.i.i, align 8, !tbaa !42, !noalias !112
  store ptr %3, ptr %pn.i.i, align 8, !tbaa !42, !alias.scope !112
  %cmp.not.i.i.i = icmp eq ptr %3, null
  br i1 %cmp.not.i.i.i, label %_ZNK8QuantLib11HestonModel7processEv.exit, label %if.then.i.i.i

if.then.i.i.i:                                    ; preds = %_ZNK5boost10shared_ptrIN8QuantLib11HestonModelEEptEv.exit
  %use_count_.i.i.i.i = getelementptr inbounds nuw i8, ptr %3, i64 8
  %4 = atomicrmw add ptr %use_count_.i.i.i.i, i32 1 monotonic, align 4, !noalias !112
  br label %_ZNK8QuantLib11HestonModel7processEv.exit

_ZNK8QuantLib11HestonModel7processEv.exit:        ; preds = %_ZNK5boost10shared_ptrIN8QuantLib11HestonModelEEptEv.exit, %if.then.i.i.i
  ret void
}